; Function Attrs: nounwind sspstrong uwtable
define internal i64 @ossl_ocspsres_get_certid(i64 noundef %0) #0 {
  %2 = tail call ptr @rb_check_typeddata(i64 noundef %0, ptr noundef nonnull @ossl_ocsp_singleresp_type) #5
  %.not = icmp eq ptr %2, null
  br i1 %.not, label %3, label %5

3:                                                ; preds = %1
  %4 = load i64, ptr @rb_eRuntimeError, align 8, !tbaa !6
  tail call void (i64, ptr, ...) @ossl_raise(i64 noundef %4, ptr noundef nonnull @.str.87) #6
  unreachable

5:                                                ; preds = %1
  %6 = tail call ptr @OCSP_SINGLERESP_get0_id(ptr noundef nonnull %2) #5
  %7 = tail call ptr @OCSP_CERTID_dup(ptr noundef %6) #5
  %8 = load i64, ptr @cOCSPCertId, align 8, !tbaa !6
  %9 = tail call i64 @rb_data_typed_object_wrap(i64 noundef %8, ptr noundef null, ptr noundef nonnull @ossl_ocsp_certid_type) #5
  %.not.i = icmp eq ptr %7, null
  br i1 %.not.i, label %10, label %ossl_ocspcertid_new.exit

10:                                               ; preds = %5
  %11 = load i64, ptr @rb_eRuntimeError, align 8, !tbaa !6
  tail call void (i64, ptr, ...) @ossl_raise(i64 noundef %11, ptr noundef nonnull @.str.77) #6
  unreachable

ossl_ocspcertid_new.exit:                         ; preds = %5
  %12 = inttoptr i64 %9 to ptr
  %13 = getelementptr inbounds nuw i8, ptr %12, i64 32
  store ptr %7, ptr %13, align 8, !tbaa !10
  ret i64 %9
}